; ModuleID = '51/149.c'
source_filename = "51/149.c"
target datalayout = "e-m:e-p270:32:32-p271:32:32-p272:64:64-i64:64-f80:128-n8:16:32:64-S128"
target triple = "x86_64-pc-linux-gnu"

@.str = private unnamed_addr constant [5 x i8] c"%d%s\00", align 1
@.str.1 = private unnamed_addr constant [4 x i8] c"NO\0A\00", align 1
@.str.2 = private unnamed_addr constant [4 x i8] c"%d\0A\00", align 1
@.str.3 = private unnamed_addr constant [4 x i8] c"%s\0A\00", align 1

; Function Attrs: noinline nounwind uwtable
define dso_local void @main() #0 {
  %1 = alloca [100 x i8], align 16
  %2 = alloca [98 x [6 x i8]], align 16
  %3 = alloca [6 x i8], align 1
  %4 = alloca i32, align 4
  %5 = alloca i32, align 4
  %6 = alloca i32, align 4
  %7 = alloca i32, align 4
  %8 = alloca i32, align 4
  %9 = alloca [98 x i32], align 16
  %10 = getelementptr inbounds [100 x i8], [100 x i8]* %1, i64 0, i64 0
  %11 = call i32 (i8*, ...) @__isoc99_scanf(i8* getelementptr inbounds ([5 x i8], [5 x i8]* @.str, i64 0, i64 0), i32* %4, i8* %10)
  %12 = getelementptr inbounds [100 x i8], [100 x i8]* %1, i64 0, i64 0
  %13 = call i64 @strlen(i8* %12) #4
  %14 = trunc i64 %13 to i32
  store i32 %14, i32* %8, align 4
  store i32 0, i32* %5, align 4
  br label %15

15:                                               ; preds = %23, %0
  %16 = load i32, i32* %5, align 4
  %17 = load i32, i32* %8, align 4
  %18 = icmp slt i32 %16, %17
  br i1 %18, label %19, label %26

19:                                               ; preds = %15
  %20 = load i32, i32* %5, align 4
  %21 = sext i32 %20 to i64
  %22 = getelementptr inbounds [98 x i32], [98 x i32]* %9, i64 0, i64 %21
  store i32 0, i32* %22, align 4
  br label %23

23:                                               ; preds = %19
  %24 = load i32, i32* %5, align 4
  %25 = add nsw i32 %24, 1
  store i32 %25, i32* %5, align 4
  br label %15

26:                                               ; preds = %15
  %27 = getelementptr inbounds [98 x [6 x i8]], [98 x [6 x i8]]* %2, i64 0, i64 0
  %28 = getelementptr inbounds [6 x i8], [6 x i8]* %27, i64 0, i64 0
  %29 = getelementptr inbounds [100 x i8], [100 x i8]* %1, i64 0, i64 0
  %30 = load i32, i32* %4, align 4
  %31 = sext i32 %30 to i64
  %32 = call i8* @strncpy(i8* %28, i8* %29, i64 %31) #5
  %33 = getelementptr inbounds [98 x [6 x i8]], [98 x [6 x i8]]* %2, i64 0, i64 0
  %34 = load i32, i32* %4, align 4
  %35 = sext i32 %34 to i64
  %36 = getelementptr inbounds [6 x i8], [6 x i8]* %33, i64 0, i64 %35
  store i8 0, i8* %36, align 1
  %37 = load i32, i32* %4, align 4
  %38 = sext i32 %37 to i64
  %39 = getelementptr inbounds [6 x i8], [6 x i8]* %3, i64 0, i64 %38
  store i8 0, i8* %39, align 1
  %40 = getelementptr inbounds [98 x i32], [98 x i32]* %9, i64 0, i64 0
  %41 = load i32, i32* %40, align 16
  %42 = add nsw i32 %41, 1
  store i32 %42, i32* %40, align 16
  store i32 1, i32* %5, align 4
  br label %43

43:                                               ; preds = %101, %26
  %44 = load i32, i32* %5, align 4
  %45 = load i32, i32* %8, align 4
  %46 = load i32, i32* %4, align 4
  %47 = sub nsw i32 %45, %46
  %48 = icmp sle i32 %44, %47
  br i1 %48, label %49, label %104

49:                                               ; preds = %43
  %50 = getelementptr inbounds [6 x i8], [6 x i8]* %3, i64 0, i64 0
  %51 = getelementptr inbounds [100 x i8], [100 x i8]* %1, i64 0, i64 0
  %52 = load i32, i32* %5, align 4
  %53 = sext i32 %52 to i64
  %54 = getelementptr inbounds i8, i8* %51, i64 %53
  %55 = load i32, i32* %4, align 4
  %56 = sext i32 %55 to i64
  %57 = call i8* @strncpy(i8* %50, i8* %54, i64 %56) #5
  store i32 0, i32* %6, align 4
  br label %58

58:                                               ; preds = %79, %49
  %59 = load i32, i32* %6, align 4
  %60 = sext i32 %59 to i64
  %61 = getelementptr inbounds [98 x i32], [98 x i32]* %9, i64 0, i64 %60
  %62 = load i32, i32* %61, align 4
  %63 = icmp ne i32 %62, 0
  br i1 %63, label %64, label %82

64:                                               ; preds = %58
  %65 = load i32, i32* %6, align 4
  %66 = sext i32 %65 to i64
  %67 = getelementptr inbounds [98 x [6 x i8]], [98 x [6 x i8]]* %2, i64 0, i64 %66
  %68 = getelementptr inbounds [6 x i8], [6 x i8]* %67, i64 0, i64 0
  %69 = getelementptr inbounds [6 x i8], [6 x i8]* %3, i64 0, i64 0
  %70 = call i32 @strcmp(i8* %68, i8* %69) #4
  %71 = icmp eq i32 %70, 0
  br i1 %71, label %72, label %78

72:                                               ; preds = %64
  %73 = load i32, i32* %6, align 4
  %74 = sext i32 %73 to i64
  %75 = getelementptr inbounds [98 x i32], [98 x i32]* %9, i64 0, i64 %74
  %76 = load i32, i32* %75, align 4
  %77 = add nsw i32 %76, 1
  store i32 %77, i32* %75, align 4
  br label %82

78:                                               ; preds = %64
  br label %79

79:                                               ; preds = %78
  %80 = load i32, i32* %6, align 4
  %81 = add nsw i32 %80, 1
  store i32 %81, i32* %6, align 4
  br label %58

82:                                               ; preds = %72, %58
  %83 = load i32, i32* %6, align 4
  %84 = sext i32 %83 to i64
  %85 = getelementptr inbounds [98 x i32], [98 x i32]* %9, i64 0, i64 %84
  %86 = load i32, i32* %85, align 4
  %87 = icmp eq i32 %86, 0
  br i1 %87, label %88, label %100

88:                                               ; preds = %82
  %89 = load i32, i32* %6, align 4
  %90 = sext i32 %89 to i64
  %91 = getelementptr inbounds [98 x [6 x i8]], [98 x [6 x i8]]* %2, i64 0, i64 %90
  %92 = getelementptr inbounds [6 x i8], [6 x i8]* %91, i64 0, i64 0
  %93 = getelementptr inbounds [6 x i8], [6 x i8]* %3, i64 0, i64 0
  %94 = call i8* @strcpy(i8* %92, i8* %93) #5
  %95 = load i32, i32* %6, align 4
  %96 = sext i32 %95 to i64
  %97 = getelementptr inbounds [98 x i32], [98 x i32]* %9, i64 0, i64 %96
  %98 = load i32, i32* %97, align 4
  %99 = add nsw i32 %98, 1
  store i32 %99, i32* %97, align 4
  br label %100

100:                                              ; preds = %88, %82
  br label %101

101:                                              ; preds = %100
  %102 = load i32, i32* %5, align 4
  %103 = add nsw i32 %102, 1
  store i32 %103, i32* %5, align 4
  br label %43

104:                                              ; preds = %43
  store i32 0, i32* %5, align 4
  store i32 0, i32* %7, align 4
  br label %105

105:                                              ; preds = %124, %104
  %106 = load i32, i32* %5, align 4
  %107 = sext i32 %106 to i64
  %108 = getelementptr inbounds [98 x i32], [98 x i32]* %9, i64 0, i64 %107
  %109 = load i32, i32* %108, align 4
  %110 = icmp ne i32 %109, 0
  br i1 %110, label %111, label %127

111:                                              ; preds = %105
  %112 = load i32, i32* %5, align 4
  %113 = sext i32 %112 to i64
  %114 = getelementptr inbounds [98 x i32], [98 x i32]* %9, i64 0, i64 %113
  %115 = load i32, i32* %114, align 4
  %116 = load i32, i32* %7, align 4
  %117 = icmp sgt i32 %115, %116
  br i1 %117, label %118, label %123

118:                                              ; preds = %111
  %119 = load i32, i32* %5, align 4
  %120 = sext i32 %119 to i64
  %121 = getelementptr inbounds [98 x i32], [98 x i32]* %9, i64 0, i64 %120
  %122 = load i32, i32* %121, align 4
  store i32 %122, i32* %7, align 4
  br label %123

123:                                              ; preds = %118, %111
  br label %124

124:                                              ; preds = %123
  %125 = load i32, i32* %5, align 4
  %126 = add nsw i32 %125, 1
  store i32 %126, i32* %5, align 4
  br label %105

127:                                              ; preds = %105
  %128 = load i32, i32* %7, align 4
  %129 = icmp eq i32 %128, 1
  br i1 %129, label %130, label %132

130:                                              ; preds = %127
  %131 = call i32 (i8*, ...) @printf(i8* getelementptr inbounds ([4 x i8], [4 x i8]* @.str.1, i64 0, i64 0))
  br label %159

132:                                              ; preds = %127
  %133 = load i32, i32* %7, align 4
  %134 = call i32 (i8*, ...) @printf(i8* getelementptr inbounds ([4 x i8], [4 x i8]* @.str.2, i64 0, i64 0), i32 %133)
  store i32 0, i32* %5, align 4
  br label %135

135:                                              ; preds = %155, %132
  %136 = load i32, i32* %5, align 4
  %137 = sext i32 %136 to i64
  %138 = getelementptr inbounds [98 x i32], [98 x i32]* %9, i64 0, i64 %137
  %139 = load i32, i32* %138, align 4
  %140 = icmp ne i32 %139, 0
  br i1 %140, label %141, label %158

141:                                              ; preds = %135
  %142 = load i32, i32* %5, align 4
  %143 = sext i32 %142 to i64
  %144 = getelementptr inbounds [98 x i32], [98 x i32]* %9, i64 0, i64 %143
  %145 = load i32, i32* %144, align 4
  %146 = load i32, i32* %7, align 4
  %147 = icmp eq i32 %145, %146
  br i1 %147, label %148, label %154

148:                                              ; preds = %141
  %149 = load i32, i32* %5, align 4
  %150 = sext i32 %149 to i64
  %151 = getelementptr inbounds [98 x [6 x i8]], [98 x [6 x i8]]* %2, i64 0, i64 %150
  %152 = getelementptr inbounds [6 x i8], [6 x i8]* %151, i64 0, i64 0
  %153 = call i32 (i8*, ...) @printf(i8* getelementptr inbounds ([4 x i8], [4 x i8]* @.str.3, i64 0, i64 0), i8* %152)
  br label %154

154:                                              ; preds = %148, %141
  br label %155

155:                                              ; preds = %154
  %156 = load i32, i32* %5, align 4
  %157 = add nsw i32 %156, 1
  store i32 %157, i32* %5, align 4
  br label %135

158:                                              ; preds = %135
  br label %159

159:                                              ; preds = %158, %130
  ret void
}

declare dso_local i32 @__isoc99_scanf(i8*, ...) #1

; Function Attrs: nounwind readonly
declare dso_local i64 @strlen(i8*) #2

; Function Attrs: nounwind
declare dso_local i8* @strncpy(i8*, i8*, i64) #3

; Function Attrs: nounwind readonly
declare dso_local i32 @strcmp(i8*, i8*) #2

; Function Attrs: nounwind
declare dso_local i8* @strcpy(i8*, i8*) #3

declare dso_local i32 @printf(i8*, ...) #1


!llvm.module.flags = !{!0}
!llvm.ident = !{!1}

!0 = !{i32 1, !"wchar_size", i32 4}
!1 = !{!"clang version 10.0.0-4ubuntu1 "}
